; Function Attrs: mustprogress uwtable
define hidden noundef nonnull align 8 dereferenceable(8) ptr @_ZNK11tbv_manager7displayERSoRK3tbv(ptr noundef nonnull readonly align 8 captures(none) dereferenceable(552) %0, ptr noundef nonnull returned align 8 dereferenceable(8) %1, ptr noundef nonnull readonly align 4 captures(none) dereferenceable(4) %2) local_unnamed_addr #5 align 2 {
  %4 = getelementptr inbounds nuw i8, ptr %0, i64 520
  %5 = load i32, ptr %4, align 8, !tbaa !16
  %6 = icmp ult i32 %5, 2
  br i1 %6, label %7, label %9

7:                                                ; preds = %3
  %8 = tail call noundef nonnull align 8 dereferenceable(8) ptr @_ZSt16__ostream_insertIcSt11char_traitsIcEERSt13basic_ostreamIT_T0_ES6_PKS3_l(ptr noundef nonnull align 8 dereferenceable(8) %1, ptr noundef nonnull @.str.2, i64 noundef 2)
  br label %13

9:                                                ; preds = %3
  %10 = lshr i32 %5, 1
  %11 = add nsw i32 %10, -1
  %12 = tail call noundef nonnull align 8 dereferenceable(8) ptr @_ZNK11tbv_manager7displayERSoRK3tbvjj(ptr nonnull align 8 poison, ptr noundef nonnull align 8 dereferenceable(8) %1, ptr noundef nonnull align 4 dereferenceable(4) %2, i32 noundef %11, i32 noundef 0)
  br label %13

13:                                               ; preds = %9, %7
  ret ptr %1
}